; Omni.def : Declares the module paarameters for OMNI.

DESCRIPTION  "Lego OMNI Windows Dynamic Link Library"

EXPORTS

; EXPORTs really required only.

; Omni Native Functions
?Register@MxNotificationManager@@QAEXPAVMxCore@@@Z
?NotificationManager@@YAPAVMxNotificationManager@@XZ
??4MxAtomId@@QAEAAV0@ABV0@@Z
?Unregister@MxNotificationManager@@QAEXPAVMxCore@@@Z
??1MxDSAction@@UAE@XZ
??1MxAtomId@@QAE@XZ
?DeleteObject@@YAXAAVMxDSAction@@@Z
??0MxDSAction@@QAE@XZ
?Start@@YAJPAVMxDSAction@@@Z
?g_lastTimeCalculated@MxTimer@@0JA
?g_lastTimeTimerStarted@MxTimer@@0JA
?Timer@@YAPAVMxTimer@@XZ
?TickleManager@@YAPAVMxTickleManager@@XZ
?Notify@MxCore@@UAEJAAVMxParam@@@Z
??1MxCore@@UAE@XZ
??0MxCore@@QAE@XZ
??1MxString@@UAE@XZ
??0MxString@@QAE@PBD@Z
??0MxString@@QAE@XZ
??4MxString@@QAEAAV0@ABV0@@Z
?GetAttenuation@MxSoundManager@@QAEHI@Z
?IsSound3D@MxOmni@@SAEXZ
??0MxString@@QAE@ABV0@@Z
??4MxString@@QAEABV0@PBD@Z
??0MxAtomId@@QAE@PBDW4LookupMode@@@Z
??0MxObjectFactory@@QAE@XZ
?Enable@MxPresenter@@UAEXE@Z
?EndAction@MxPresenter@@UAEXXZ
?StartAction@MxPresenter@@UAEJPAVMxStreamController@@PAVMxDSAction@@@Z
?Resume@MxWavePresenter@@UAEXXZ
?Pause@MxWavePresenter@@UAEXXZ
?SetVolume@MxWavePresenter@@UAEXH@Z
?LoopChunk@MxWavePresenter@@UAEXPAVMxStreamChunk@@@Z
?Enable@MxWavePresenter@@UAEXE@Z
?PutData@MxWavePresenter@@UAEJXZ
?EndAction@MxWavePresenter@@UAEXXZ
?AddToManager@MxWavePresenter@@UAEJXZ
?ParseExtra@MxWavePresenter@@UAEXXZ
?DoneTickle@MxWavePresenter@@UAEXXZ
?StreamingTickle@MxWavePresenter@@UAEXXZ
?StartingTickle@MxWavePresenter@@UAEXXZ
?ReadyTickle@MxWavePresenter@@UAEXXZ
?AddToManager@MxSoundPresenter@@UAEJXZ
?EndAction@MxMediaPresenter@@UAEXXZ
?RepeatingTickle@MxMediaPresenter@@UAEXXZ
?StreamingTickle@MxMediaPresenter@@UAEXXZ
?VTable0x60@MxCompositePresenter@@UAEXPAVMxPresenter@@@Z
?VTable0x5c@MxCompositePresenter@@UAEXAAVMxNotificationParam@@@Z
?VTable0x58@MxCompositePresenter@@UAEXAAVMxEndActionNotificationParam@@@Z
?Enable@MxCompositePresenter@@UAEXE@Z
?HasTickleStatePassed@MxCompositePresenter@@UAEEW4TickleState@MxPresenter@@@Z
?SetTickleState@MxCompositePresenter@@UAEXW4TickleState@MxPresenter@@@Z
?EndAction@MxCompositePresenter@@UAEXXZ
?Tickle@MxPresenter@@UAEJXZ
?Notify@MxCompositePresenter@@UAEJAAVMxParam@@@Z
?VTable0x74@MxVideoPresenter@@UAEEXZ
?PutFrame@MxVideoPresenter@@UAEXXZ
?NextFrame@MxVideoPresenter@@UAEXXZ
?LoopChunk@MxMediaPresenter@@UAEXPAVMxStreamChunk@@@Z
?Enable@MxMediaPresenter@@UAEXE@Z
?IsHit@MxVideoPresenter@@UAEEHH@Z
?PutData@MxVideoPresenter@@UAEJXZ
?EndAction@MxVideoPresenter@@UAEXXZ
?StartAction@MxMediaPresenter@@UAEJPAVMxStreamController@@PAVMxDSAction@@@Z
?AddToManager@MxVideoPresenter@@UAEJXZ
?ParseExtra@MxPresenter@@MAEXXZ
?DoneTickle@MxMediaPresenter@@UAEXXZ
?FreezingTickle@MxVideoPresenter@@UAEXXZ
?RepeatingTickle@MxVideoPresenter@@UAEXXZ
?StreamingTickle@MxVideoPresenter@@UAEXXZ
?StartingTickle@MxVideoPresenter@@UAEXXZ
?ReadyTickle@MxVideoPresenter@@UAEXXZ
?Tickle@MxMediaPresenter@@UAEJXZ
?Create@MxObjectFactory@@UAEPAVMxCore@@PBD@Z
??1MxCriticalSection@@QAE@XZ
?Init@MxWavePresenter@@IAEXXZ
?Init@MxMediaPresenter@@IAEXXZ
?Init@MxPresenter@@IAEXXZ
??0MxCriticalSection@@QAE@XZ
?Init@MxVideoPresenter@@AAEXXZ
?Destroy@MxMediaPresenter@@IAEXE@Z
?Destroy@MxVideoPresenter@@IAEXE@Z
?Destroy@MxSoundPresenter@@IAEXE@Z
?Destroy@MxWavePresenter@@IAEXE@Z
?Send@MxNotificationManager@@QAEJPAVMxCore@@ABVMxNotificationParam@@@Z
?g_parseExtraTokens@@3PBDB
?KeyValueStringParse@@YAEPADPBD1@Z
?g_strACTION@@3PBDB
?AppendExtra@MxDSAction@@QAEXGPBD@Z
?g_strCOMP@@3PBDB
?SetVariable@MxVariableTable@@QAEXPBD0@Z
?VariableTable@@YAPAVMxVariableTable@@XZ
?GetVariable@MxVariableTable@@QAEPBDPBD@Z
?g_strHIT_ACTOR_SOUND@@3PBDB
?FreeDataChunk@MxDSSubscriber@@QAEXPAVMxStreamChunk@@@Z
?NextChunk@MxMediaPresenter@@QAEPAVMxStreamChunk@@XZ
?Leave@MxCriticalSection@@QAEXXZ
?Enter@MxCriticalSection@@QAEXXZ
?g_strANIMATION@@3PBDB
?FUN_100b7220@@YAXPAVMxDSAction@@IE@Z
?IsEnabled@MxPresenter@@QAEEXZ
?SendToCompositePresenter@MxPresenter@@QAEXPAVMxOmni@@@Z
__imp__timeGetTime@0
?FUN_100aebd0@MxSoundManager@@QAEPAVMxPresenter@@ABVMxAtomId@@I@Z
?Resume@MxSoundManager@@UAEXXZ
?Pause@MxSoundManager@@UAEXXZ
?SetVolume@MxSoundManager@@UAEXH@Z
?StopPresenters@MxMediaManager@@UAEXXZ
?UnregisterPresenter@MxMediaManager@@UAEXAAVMxPresenter@@@Z
?RegisterPresenter@MxMediaManager@@UAEXAAVMxPresenter@@@Z
?Create@MxAudioManager@@UAEJXZ
??1MxSoundManager@@UAE@XZ
??0MxSoundManager@@QAE@XZ
?Destroy@MxSoundManager@@UAEXXZ
?GetInstance@MxOmni@@SAPAV1@XZ
?Create@MxSoundManager@@UAEJIE@Z
??1MxAutoLock@@QAE@XZ
??0MxAutoLock@@QAE@PAVMxCriticalSection@@@Z
?Tickle@MxMediaManager@@UAEJXZ
?g_strVISIBILITY@@3PBDB
?g_strMUTE@@3PBDB
?g_strSOUND@@3PBDB
?g_strSPEED@@3PBDB
?g_strATTACH_CAMERA@@3PBDB
?g_strCOLLIDEBOX@@3PBDB
?g_strPATH@@3PBDB
?g_strPERMIT_NAVIGATE@@3PBDB
?SetVariable@MxVariableTable@@QAEXPAVMxVariable@@@Z
?OmniError@@YAXPBDH@Z
??YMxString@@QAEAAV0@PBD@Z
?ObjectFactory@@YAPAVMxObjectFactory@@XZ
?ToUpperCase@MxString@@QAEXXZ
?ToLowerCase@MxString@@QAEXXZ
?Close@MxStreamer@@QAEJPBD@Z
?Streamer@@YAPAVMxStreamer@@XZ
?Open@MxStreamer@@QAEPAVMxStreamController@@PBDG@Z
?ParseExtra@MxStillPresenter@@UAEXXZ
?RepeatingTickle@MxStillPresenter@@UAEXXZ
?StreamingTickle@MxStillPresenter@@UAEXXZ
?Clone@MxStillPresenter@@UAEPAV1@XZ
?SetPosition@MxStillPresenter@@UAEXHH@Z
?RealizePalette@MxStillPresenter@@UAEXXZ
?LoadFrame@MxStillPresenter@@UAEXPAVMxStreamChunk@@@Z
?NextFrame@MxStillPresenter@@UAEXXZ
?CreateBitmap@MxStillPresenter@@UAEXXZ
?LoadHeader@MxStillPresenter@@UAEXPAVMxStreamChunk@@@Z
?Enable@MxStillPresenter@@UAEXE@Z
?StartingTickle@MxStillPresenter@@UAEXXZ
?Destroy@MxStillPresenter@@AAEXE@Z
?g_strVARIABLE@@3PBDB
?g_strFILLER_INDEX@@3PBDB
?g_strTOP_TO_BOTTOM@@3PBDB
?g_strBOTTOM_TO_TOP@@3PBDB
?g_strRIGHT_TO_LEFT@@3PBDB
?g_strLEFT_TO_RIGHT@@3PBDB
?g_strTYPE@@3PBDB
?MakeSourceName@@YAXPADPBD@Z
??1MxCompositePresenter@@UAE@XZ
??0MxCompositePresenter@@QAE@XZ
?StartAction@MxCompositePresenter@@UAEJPAVMxStreamController@@PAVMxDSAction@@@Z
?ContainsPresenter@@YAEAAVMxCompositePresenterList@@PAVMxPresenter@@@Z
?g_strMAP@@3PBDB
?g_strGRID@@3PBDB
?g_strTOGGLE@@3PBDB
?g_strSTYLE@@3PBDB
?PopData@MxDSSubscriber@@QAEPAVMxStreamChunk@@XZ
?g_strTRIGGERS_SOURCE@@3PBDB
?PresenterNameDispatch@@YAPBDABVMxDSAction@@@Z
?g_strANIMMAN_ID@@3PBDB
?FUN_100b98f0@MxStreamer@@QAEXPAVMxDSAction@@@Z
?ClearScreen@MxDisplaySurface@@QAEXXZ
?RealizePalette@MxFlcPresenter@@UAEXXZ
?CreateBitmap@MxFlcPresenter@@UAEXXZ
?LoadHeader@MxFlcPresenter@@UAEXPAVMxStreamChunk@@@Z
??1MxFlcPresenter@@UAE@XZ
??0MxFlcPresenter@@QAE@XZ
?DecodeFLCFrame@@YAXPAUtagBITMAPINFOHEADER@@PAEPAUFLIC_HEADER@@PAUFLIC_FRAME@@1@Z
?CreateEntity@MxPresenter@@QAEPAVMxEntity@@PBD@Z
?CreatePresenter@MxOmni@@UAEJPAVMxStreamController@@AAVMxDSAction@@@Z
??1MxOmni@@UAE@XZ
??0MxOmni@@QAE@XZ
?Init@MxOmni@@UAEXXZ
?Destroy@MxOmni@@UAEXXZ
?Clear@MxAtomId@@QAEXXZ
?GetClientTickleInterval@MxTickleManager@@UAEHPAVMxCore@@@Z
?SetClientTickleInterval@MxTickleManager@@UAEXPAVMxCore@@H@Z
?UnregisterClient@MxTickleManager@@UAEXPAVMxCore@@@Z
?RegisterClient@MxTickleManager@@UAEXPAVMxCore@@H@Z
?Tickle@MxTickleManager@@UAEJXZ
?Create@MxOmni@@UAEJAAVMxOmniCreateParam@@@Z
??1MxTickleManager@@UAE@XZ
?SetInstance@MxOmni@@SAXPAV1@@Z
?DestroyInstance@MxOmni@@SAXXZ
?DeleteObject@MxOmni@@UAEXAAVMxDSAction@@@Z
?DoesEntityExist@MxOmni@@UAEEAAVMxDSAction@@@Z
?Start@MxOmni@@UAEJPAVMxDSAction@@@Z
?Notify@MxOmni@@UAEJAAVMxParam@@@Z
?Pause@MxOmni@@UAEXXZ
?Resume@MxOmni@@UAEXXZ
__imp__joyGetPosEx@8
__imp__joyGetDevCapsA@12
?GetCD@MxOmni@@SAPBDXZ
?GetHD@MxOmni@@SAPBDXZ
??1MxDSChunk@@UAE@XZ
??0MxDSChunk@@QAE@XZ
?g_strWORLD@@3PBDB
?PeekData@MxDSSubscriber@@QAEPAVMxStreamChunk@@XZ
?g_strPTATCAM@@3PBDB
?g_strSUBST@@3PBDB
?g_strMUST_SUCCEED@@3PBDB
?g_strHIDE_ON_STOP@@3PBDB
?g_strFROM_PARENT@@3PBDB
?SortPresenterList@MxVideoManager@@QAEXXZ
?g_strDB_CREATE@@3PBDB
?g_strAUTO_CREATE@@3PBDB
?CurrentChunk@MxMediaPresenter@@QAEPAVMxStreamChunk@@XZ
?CopySurface@MxDisplaySurface@@SAPAUIDirectDrawSurface@@PAU2@@Z
??0MxPalette@@QAE@PBUtagRGBQUAD@@@Z
?VTable0x28@MxVideoManager@@UAEJAAVMxVideoParam@@PAUIDirectDraw@@PAUIDirect3D2@@PAUIDirectDrawSurface@@3PAUIDirectDrawClipper@@IE@Z
?Create@MxMediaManager@@UAEJXZ
??1MxVideoManager@@UAE@XZ
??0MxVideoManager@@QAE@XZ
?CreateNativePalette@MxPalette@@QAEPAUIDirectDrawPalette@@XZ
?GetEntries@MxPalette@@QAEJPAUtagPALETTEENTRY@@@Z
??0MxPalette@@QAE@XZ
?Destroy@MxVideoManager@@UAEXXZ
?UpdateRegion@MxVideoManager@@QAEXXZ
?CreateCursorSurface@MxDisplaySurface@@SAPAUIDirectDrawSurface@@XZ
?InvalidateRect@MxVideoManager@@QAEXAAVMxRect32@@@Z
?FUN_100bc8b0@MxDisplaySurface@@QAEPAUIDirectDrawSurface@@HH@Z
?SetEntries@MxPalette@@QAEJPAUtagPALETTEENTRY@@@Z
?Reset@MxPalette@@QAEXE@Z
?Clone@MxPalette@@QAEPAV1@XZ
?SetSkyColor@MxPalette@@QAEJPAUtagPALETTEENTRY@@@Z
??4MxDSAction@@QAEAAV0@AAV0@@Z
?HandleEndAction@MxOmni@@QAEJAAVMxParam@@@Z
??0MxBitmap@@QAE@XZ
??0MxDSFile@@QAE@PBDK@Z
??0MxOmniCreateFlags@@QAE@XZ
??0MxOmniCreateParam@@QAE@PBDPAUHWND__@@AAVMxVideoParam@@VMxOmniCreateFlags@@@Z
??0MxVideoParam@@QAE@AAV0@@Z
??0MxVideoParam@@QAE@XZ
??0MxVideoParamFlags@@QAE@XZ
??1MXIOINFO@@QAE@XZ
??1MxBitmap@@UAE@XZ
??1MxVideoParam@@QAE@XZ
??4MxVideoParam@@QAEAAV0@ABV0@@Z
??8MxPalette@@QAEEAAV0@@Z
?Close@MxDSFile@@UAEJXZ
?CreatePalette@MxBitmap@@UAEPAVMxPalette@@XZ
?CreateStreamObject@@YAPAVMxDSObject@@PAVMxDSFile@@F@Z
?Detach@MxPalette@@QAEXXZ
?EventManager@@YAPAVMxEventManager@@XZ
?GetBufferSize@MxDSFile@@UAEKXZ
?GetInstance@MxScheduler@@SAPAV1@XZ
?GetRealTime@MxTimer@@QAEJXZ
?GetStreamBuffersNum@MxDSFile@@UAEKXZ
?MSoundManager@@YAPAVMxSoundManager@@XZ
?MusicManager@@YAPAVMxMusicManager@@XZ
?Open@MxDSFile@@UAEJK@Z
?Read@MxBitmap@@UAEJPBD@Z
?Read@MxDSFile@@UAEJPAEK@Z
?RealizePalette@MxVideoManager@@UAEJPAVMxPalette@@@Z
?Seek@MxDSFile@@UAEJJH@Z
?SetCD@MxOmni@@SAXPBD@Z
?SetDeviceName@MxVideoParam@@QAEXPAD@Z
?SetDoMutex@MxCriticalSection@@SAXXZ
?SetHD@MxOmni@@SAXPBD@Z
?SetObjectName@MxDSObject@@QAEXPBD@Z
?SetOmniUserMessage@@YAXP6AXPBDH@Z@Z
?SetSound3D@MxOmni@@SAXE@Z
?StartMultiTasking@MxScheduler@@QAEXK@Z

; Other Functions
?CCWVertex@LegoEdge@@QAEPAVVector3@@AAVLegoWEEdge@@@Z
?CWVertex@LegoEdge@@QAEPAVVector3@@AAVLegoWEEdge@@@Z
?GetCounterclockwiseEdge@LegoEdge@@QAEPAU1@AAVLegoWEEdge@@@Z
?GetClockwiseEdge@LegoEdge@@QAEPAU1@AAVLegoWEEdge@@@Z
??0LegoUnknown100db7f4@@QAE@XZ
??1LegoEdge@@UAE@XZ
?VTable0x04@LegoWEGEdge@@UAEJXZ
??1LegoWEGEdge@@UAE@XZ
??0LegoWEGEdge@@QAE@XZ
_DirectInputCreateA@16
??0MxDirect3D@@QAE@XZ
??1MxDeviceEnumerate@@QAE@XZ
?SetDevice@MxDirect3D@@QAEHAAVMxDeviceEnumerate@@PAUMxDriver@@PAUDirect3DDeviceInfo@@@Z
?GetDevice@LegoDeviceEnumerate@@QAEHHAAPAUMxDriver@@AAPAUDirect3DDeviceInfo@@@Z
?FUN_1009d0d0@LegoDeviceEnumerate@@QAEHXZ
?FUN_1009d210@LegoDeviceEnumerate@@QAEHXZ
?ParseDeviceName@LegoDeviceEnumerate@@QAEHPBD@Z
?DoEnumerate@MxDeviceEnumerate@@UAEHXZ
??0MxDeviceEnumerate@@QAE@XZ
?RestoreSurfaces@MxDirectDraw@@QAEHXZ
?Read@LegoBox@@QAEJPAVLegoStorage@@@Z
?Read@LegoSphere@@QAEJPAVLegoStorage@@@Z
??0LegoVertex@@QAE@XZ
?Read@LegoMesh@@QAEJPAVLegoStorage@@@Z
??0LegoMesh@@QAE@XZ
?FlipToGDISurface@MxDirectDraw@@QAEHXZ
?GetPrimaryBitDepth@MxDirectDraw@@SAHXZ
?Pause@MxDirectDraw@@QAEHH@Z
?CreateRenderer@Tgl@@YAPAVRenderer@1@XZ
?ViewportDestroyCallback@@YAXPAUIDirect3DRMObject@@PAX@Z

; MxTrace
;?_MxTrace@@YAXPBDZZ
